target datalayout = "e-m:e-p270:32:32-p271:32:32-p272:64:64-i64:64-i128:128-f80:128-n8:16:32:64-S128"
target triple = "x86_64-pc-linux-gnu"

%"class.icu_77::RegexMatcher" = type { %"class.icu_77::UObject", ptr, ptr, ptr, ptr, ptr, i64, i32, i64, i64, i64, i64, i64, i64, i64, i64, i8, i8, i8, i64, i64, i64, i64, i8, i8, ptr, ptr, ptr, [8 x i64], i32, i32, i32, i32, ptr, ptr, ptr, ptr, i8, i8, i32, ptr, ptr }
%"class.icu_77::UObject" = type { ptr }
%"class.icu_77::RegexPattern" = type { %"class.icu_77::UObject", ptr, ptr, i32, ptr, %"class.icu_77::UnicodeString", ptr, ptr, i32, i32, i32, i32, ptr, i32, i32, i32, ptr, i32, ptr, i8, ptr }
%"class.icu_77::UnicodeString" = type { %"class.icu_77::Replaceable", %"union.icu_77::UnicodeString::StackBufferOrFields" }
%"class.icu_77::Replaceable" = type { %"class.icu_77::UObject" }
%"union.icu_77::UnicodeString::StackBufferOrFields" = type { %struct.anon.0, [32 x i8] }
%struct.anon.0 = type { i16, i32, i32, ptr }
%"class.icu_77::UVector32" = type { %"class.icu_77::UObject", i32, i32, i32, ptr }
%"struct.icu_77::REStackFrame" = type { i64, i64, [1 x i64] }

; Function Attrs: inlinehint mustprogress nounwind uwtable
define linkonce_odr noundef i32 @_ZNK6icu_779UVector3210elementAtiEi(ptr noundef nonnull align 8 dereferenceable(32) %0, i32 noundef %1) #2 comdat align 2 {
  %3 = alloca ptr, align 8
  %4 = alloca i32, align 4
  store ptr %0, ptr %3, align 8, !tbaa !127
  store i32 %1, ptr %4, align 4, !tbaa !14
  %5 = load ptr, ptr %3, align 8
  %6 = load i32, ptr %4, align 4, !tbaa !14
  %7 = icmp sge i32 %6, 0
  br i1 %7, label %8, label %25

8:                                                ; preds = %2
  %9 = getelementptr inbounds nuw %"class.icu_77::UVector32", ptr %5, i32 0, i32 1
  %10 = load i32, ptr %9, align 8, !tbaa !128
  %11 = icmp sgt i32 %10, 0
  br i1 %11, label %12, label %25

12:                                               ; preds = %8
  %13 = getelementptr inbounds nuw %"class.icu_77::UVector32", ptr %5, i32 0, i32 1
  %14 = load i32, ptr %13, align 8, !tbaa !128
  %15 = load i32, ptr %4, align 4, !tbaa !14
  %16 = sub nsw i32 %14, %15
  %17 = icmp sgt i32 %16, 0
  br i1 %17, label %18, label %25

18:                                               ; preds = %12
  %19 = getelementptr inbounds nuw %"class.icu_77::UVector32", ptr %5, i32 0, i32 4
  %20 = load ptr, ptr %19, align 8, !tbaa !130
  %21 = load i32, ptr %4, align 4, !tbaa !14
  %22 = sext i32 %21 to i64
  %23 = getelementptr inbounds i32, ptr %20, i64 %22
  %24 = load i32, ptr %23, align 4, !tbaa !14
  br label %26

25:                                               ; preds = %12, %8, %2
  br label %26

26:                                               ; preds = %25, %18
  %27 = phi i32 [ %24, %18 ], [ 0, %25 ]
  ret i32 %27
}

; Function Attrs: inlinehint mustprogress nounwind uwtable
define linkonce_odr noundef i32 @_ZNK6icu_779UVector324sizeEv(ptr noundef nonnull align 8 dereferenceable(32) %0) #2 comdat align 2 {
  %2 = alloca ptr, align 8
  store ptr %0, ptr %2, align 8, !tbaa !127
  %3 = load ptr, ptr %2, align 8
  %4 = getelementptr inbounds nuw %"class.icu_77::UVector32", ptr %3, i32 0, i32 1
  %5 = load i32, ptr %4, align 8, !tbaa !128
  ret i32 %5
}

; Function Attrs: inlinehint mustprogress nounwind uwtable
define internal noundef signext i8 @_ZL9U_FAILURE10UErrorCode(i32 noundef %0) #2 {
  %2 = alloca i32, align 4
  store i32 %0, ptr %2, align 4, !tbaa !15
  %3 = load i32, ptr %2, align 4, !tbaa !15
  %4 = icmp sgt i32 %3, 0
  %5 = zext i1 %4 to i8
  ret i8 %5
}

; Function Attrs: mustprogress uwtable
define noundef i64 @_ZNK6icu_7712RegexMatcher5end64EiR10UErrorCode(ptr noundef nonnull align 8 dereferenceable(336) %0, i32 noundef %1, ptr noundef nonnull align 4 dereferenceable(4) %2) unnamed_addr #1 align 2 {
  %4 = alloca i64, align 8
  %5 = alloca ptr, align 8
  %6 = alloca i32, align 4
  %7 = alloca ptr, align 8
  %8 = alloca i64, align 8
  %9 = alloca i32, align 4
  store ptr %0, ptr %5, align 8, !tbaa !23
  store i32 %1, ptr %6, align 4, !tbaa !14
  store ptr %2, ptr %7, align 8, !tbaa !22
  %10 = load ptr, ptr %5, align 8
  %11 = load ptr, ptr %7, align 8, !tbaa !22
  %12 = load i32, ptr %11, align 4, !tbaa !15
  %13 = call noundef signext i8 @_ZL9U_FAILURE10UErrorCode(i32 noundef %12)
  %14 = icmp ne i8 %13, 0
  br i1 %14, label %15, label %16

15:                                               ; preds = %3
  store i64 -1, ptr %4, align 8
  br label %60

16:                                               ; preds = %3
  %17 = getelementptr inbounds nuw %"class.icu_77::RegexMatcher", ptr %10, i32 0, i32 18
  %18 = load i8, ptr %17, align 2, !tbaa !66
  %19 = sext i8 %18 to i32
  %20 = icmp eq i32 %19, 0
  br i1 %20, label %21, label %23

21:                                               ; preds = %16
  %22 = load ptr, ptr %7, align 8, !tbaa !22
  store i32 66306, ptr %22, align 4, !tbaa !15
  store i64 -1, ptr %4, align 8
  br label %60

23:                                               ; preds = %16
  %24 = load i32, ptr %6, align 4, !tbaa !14
  %25 = icmp slt i32 %24, 0
  br i1 %25, label %34, label %26

26:                                               ; preds = %23
  %27 = load i32, ptr %6, align 4, !tbaa !14
  %28 = getelementptr inbounds nuw %"class.icu_77::RegexMatcher", ptr %10, i32 0, i32 1
  %29 = load ptr, ptr %28, align 8, !tbaa !38
  %30 = getelementptr inbounds nuw %"class.icu_77::RegexPattern", ptr %29, i32 0, i32 12
  %31 = load ptr, ptr %30, align 8, !tbaa !123
  %32 = call noundef i32 @_ZNK6icu_779UVector324sizeEv(ptr noundef nonnull align 8 dereferenceable(32) %31)
  %33 = icmp sgt i32 %27, %32
  br i1 %33, label %34, label %36

34:                                               ; preds = %26, %23
  %35 = load ptr, ptr %7, align 8, !tbaa !22
  store i32 8, ptr %35, align 4, !tbaa !15
  store i64 -1, ptr %4, align 8
  br label %60

36:                                               ; preds = %26
  call void @llvm.lifetime.start.p0(i64 8, ptr %8) #11
  store i64 -1, ptr %8, align 8, !tbaa !18
  %37 = load i32, ptr %6, align 4, !tbaa !14
  %38 = icmp eq i32 %37, 0
  br i1 %38, label %39, label %42

39:                                               ; preds = %36
  %40 = getelementptr inbounds nuw %"class.icu_77::RegexMatcher", ptr %10, i32 0, i32 20
  %41 = load i64, ptr %40, align 8, !tbaa !68
  store i64 %41, ptr %8, align 8, !tbaa !18
  br label %58

42:                                               ; preds = %36
  call void @llvm.lifetime.start.p0(i64 4, ptr %9) #11
  %43 = getelementptr inbounds nuw %"class.icu_77::RegexMatcher", ptr %10, i32 0, i32 1
  %44 = load ptr, ptr %43, align 8, !tbaa !38
  %45 = getelementptr inbounds nuw %"class.icu_77::RegexPattern", ptr %44, i32 0, i32 12
  %46 = load ptr, ptr %45, align 8, !tbaa !123
  %47 = load i32, ptr %6, align 4, !tbaa !14
  %48 = sub nsw i32 %47, 1
  %49 = call noundef i32 @_ZNK6icu_779UVector3210elementAtiEi(ptr noundef nonnull align 8 dereferenceable(32) %46, i32 noundef %48)
  store i32 %49, ptr %9, align 4, !tbaa !14
  %50 = getelementptr inbounds nuw %"class.icu_77::RegexMatcher", ptr %10, i32 0, i32 26
  %51 = load ptr, ptr %50, align 8, !tbaa !74
  %52 = getelementptr inbounds nuw %"struct.icu_77::REStackFrame", ptr %51, i32 0, i32 2
  %53 = load i32, ptr %9, align 4, !tbaa !14
  %54 = add nsw i32 %53, 1
  %55 = sext i32 %54 to i64
  %56 = getelementptr inbounds [1 x i64], ptr %52, i64 0, i64 %55
  %57 = load i64, ptr %56, align 8, !tbaa !18
  store i64 %57, ptr %8, align 8, !tbaa !18
  call void @llvm.lifetime.end.p0(i64 4, ptr %9) #11
  br label %58

58:                                               ; preds = %42, %39
  %59 = load i64, ptr %8, align 8, !tbaa !18
  store i64 %59, ptr %4, align 8
  call void @llvm.lifetime.end.p0(i64 8, ptr %8) #11
  br label %60

60:                                               ; preds = %58, %34, %21, %15
  %61 = load i64, ptr %4, align 8
  ret i64 %61
}