; Function Attrs: mustprogress nofree norecurse nosync nounwind willreturn memory(read, argmem: readwrite, inaccessiblemem: none) uwtable
define noundef i64 @_ZNK6icu_7712RegexMatcher5end64EiR10UErrorCode(ptr noundef nonnull readonly align 8 captures(none) dereferenceable(336) %0, i32 noundef %1, ptr noundef nonnull align 4 captures(none) dereferenceable(4) %2) unnamed_addr #13 align 2 {
  %4 = load i32, ptr %2, align 4, !tbaa !13
  %5 = icmp slt i32 %4, 1
  br i1 %5, label %6, label %43

6:                                                ; preds = %3
  %7 = getelementptr inbounds nuw i8, ptr %0, i64 130
  %8 = load i8, ptr %7, align 2, !tbaa !29
  %9 = icmp eq i8 %8, 0
  br i1 %9, label %10, label %11

10:                                               ; preds = %6
  store i32 66306, ptr %2, align 4, !tbaa !13
  br label %43

11:                                               ; preds = %6
  %12 = icmp slt i32 %1, 0
  br i1 %12, label %21, label %13

13:                                               ; preds = %11
  %14 = getelementptr inbounds nuw i8, ptr %0, i64 8
  %15 = load ptr, ptr %14, align 8, !tbaa !42
  %16 = getelementptr inbounds nuw i8, ptr %15, i64 136
  %17 = load ptr, ptr %16, align 8, !tbaa !104
  %18 = getelementptr inbounds nuw i8, ptr %17, i64 8
  %19 = load i32, ptr %18, align 8, !tbaa !105
  %20 = icmp sgt i32 %1, %19
  br i1 %20, label %21, label %22

21:                                               ; preds = %13, %11
  store i32 8, ptr %2, align 4, !tbaa !13
  br label %43

22:                                               ; preds = %13
  %23 = icmp eq i32 %1, 0
  br i1 %23, label %24, label %26

24:                                               ; preds = %22
  %25 = getelementptr inbounds nuw i8, ptr %0, i64 144
  br label %42

26:                                               ; preds = %22
  %27 = add nsw i32 %1, -1
  %28 = icmp samesign ugt i32 %19, %27
  br i1 %28, label %29, label %_ZNK6icu_779UVector3210elementAtiEi.exit

29:                                               ; preds = %26
  %30 = getelementptr inbounds nuw i8, ptr %17, i64 24
  %31 = load ptr, ptr %30, align 8, !tbaa !108
  %32 = zext nneg i32 %27 to i64
  %33 = getelementptr inbounds nuw i32, ptr %31, i64 %32
  %34 = load i32, ptr %33, align 4, !tbaa !12
  %35 = add nsw i32 %34, 1
  %36 = sext i32 %35 to i64
  br label %_ZNK6icu_779UVector3210elementAtiEi.exit

_ZNK6icu_779UVector3210elementAtiEi.exit:         ; preds = %26, %29
  %37 = phi i64 [ %36, %29 ], [ 1, %26 ]
  %38 = getelementptr inbounds nuw i8, ptr %0, i64 184
  %39 = load ptr, ptr %38, align 8, !tbaa !109
  %40 = getelementptr inbounds nuw i8, ptr %39, i64 16
  %41 = getelementptr inbounds [1 x i64], ptr %40, i64 0, i64 %37
  br label %42

42:                                               ; preds = %_ZNK6icu_779UVector3210elementAtiEi.exit, %24
  %.010.in = phi ptr [ %25, %24 ], [ %41, %_ZNK6icu_779UVector3210elementAtiEi.exit ]
  %.010 = load i64, ptr %.010.in, align 8, !tbaa !110
  br label %43

43:                                               ; preds = %3, %42, %21, %10
  %.0 = phi i64 [ -1, %10 ], [ -1, %21 ], [ %.010, %42 ], [ -1, %3 ]
  ret i64 %.0
}